; Function Attrs: mustprogress nounwind uwtable
define dso_local void @_ZN10cmCTestSVND2Ev(ptr noundef nonnull align 8 dereferenceable(816) %0) unnamed_addr #4 align 2 personality ptr @__gxx_personality_v0 {
  store ptr getelementptr inbounds ({ [16 x ptr] }, ptr @_ZTV10cmCTestSVN, i64 0, i32 0, i64 2), ptr %0, align 8
  %2 = getelementptr inbounds i8, ptr %0, i64 784
  %3 = load ptr, ptr %2, align 8
  %.not8.i.i.i = icmp eq ptr %3, %2
  br i1 %.not8.i.i.i, label %_ZNSt7__cxx114listIN10cmCTestSVN7SVNInfoESaIS2_EED2Ev.exit, label %.lr.ph.i.i.i

.lr.ph.i.i.i:                                     ; preds = %1, %.lr.ph.i.i.i
  %.09.i.i.i = phi ptr [ %4, %.lr.ph.i.i.i ], [ %3, %1 ]
  %4 = load ptr, ptr %.09.i.i.i, align 8
  %5 = getelementptr inbounds i8, ptr %.09.i.i.i, i64 16
  %6 = getelementptr inbounds i8, ptr %.09.i.i.i, i64 176
  tail call void @_ZNSt7__cxx1112basic_stringIcSt11char_traitsIcESaIcEED1Ev(ptr noundef nonnull align 8 dereferenceable(32) %6) #19
  %7 = getelementptr inbounds i8, ptr %.09.i.i.i, i64 144
  tail call void @_ZNSt7__cxx1112basic_stringIcSt11char_traitsIcESaIcEED1Ev(ptr noundef nonnull align 8 dereferenceable(32) %7) #19
  %8 = getelementptr inbounds i8, ptr %.09.i.i.i, i64 112
  tail call void @_ZNSt7__cxx1112basic_stringIcSt11char_traitsIcESaIcEED1Ev(ptr noundef nonnull align 8 dereferenceable(32) %8) #19
  %9 = getelementptr inbounds i8, ptr %.09.i.i.i, i64 80
  tail call void @_ZNSt7__cxx1112basic_stringIcSt11char_traitsIcESaIcEED1Ev(ptr noundef nonnull align 8 dereferenceable(32) %9) #19
  %10 = getelementptr inbounds i8, ptr %.09.i.i.i, i64 48
  tail call void @_ZNSt7__cxx1112basic_stringIcSt11char_traitsIcESaIcEED1Ev(ptr noundef nonnull align 8 dereferenceable(32) %10) #19
  tail call void @_ZNSt7__cxx1112basic_stringIcSt11char_traitsIcESaIcEED1Ev(ptr noundef nonnull align 8 dereferenceable(32) %5) #19
  tail call void @_ZdlPv(ptr noundef %.09.i.i.i) #20
  %.not.i.i.i = icmp eq ptr %4, %2
  br i1 %.not.i.i.i, label %_ZNSt7__cxx114listIN10cmCTestSVN7SVNInfoESaIS2_EED2Ev.exit, label %.lr.ph.i.i.i, !llvm.loop !5

_ZNSt7__cxx114listIN10cmCTestSVN7SVNInfoESaIS2_EED2Ev.exit: ; preds = %.lr.ph.i.i.i, %1
  tail call void @_ZN15cmCTestGlobalVCD2Ev(ptr noundef nonnull align 8 dereferenceable(784) %0) #19
  ret void
}